target datalayout = "e-m:e-p270:32:32-p271:32:32-p272:64:64-i64:64-i128:128-f80:128-n8:16:32:64-S128"
target triple = "x86_64-pc-linux-gnu"

%"class.pxrInternal_v0_24__pxrReserved__::GfVec2f" = type { [2 x float] }
%"class.pxrInternal_v0_24__pxrReserved__::GfVec2d" = type { [2 x double] }

; Function Attrs: mustprogress nounwind uwtable
define linkonce_odr noundef nonnull align 8 dereferenceable(8) ptr @_ZNK32pxrInternal_v0_24__pxrReserved__7GfVec2dixEm(ptr noundef nonnull align 8 dereferenceable(16) %0, i64 noundef %1) #2 comdat align 2 {
  %3 = alloca ptr, align 8
  %4 = alloca i64, align 8
  store ptr %0, ptr %3, align 8
  store i64 %1, ptr %4, align 8
  %5 = load ptr, ptr %3, align 8
  %6 = getelementptr inbounds nuw %"class.pxrInternal_v0_24__pxrReserved__::GfVec2d", ptr %5, i32 0, i32 0
  %7 = load i64, ptr %4, align 8
  %8 = getelementptr inbounds [2 x double], ptr %6, i64 0, i64 %7
  ret ptr %8
}

; Function Attrs: mustprogress uwtable
define noundef zeroext i1 @_ZNK32pxrInternal_v0_24__pxrReserved__7GfVec2feqERKNS_7GfVec2dE(ptr noundef nonnull align 4 dereferenceable(8) %0, ptr noundef nonnull align 8 dereferenceable(16) %1) #0 align 2 {
  %3 = alloca ptr, align 8
  %4 = alloca ptr, align 8
  store ptr %0, ptr %3, align 8
  store ptr %1, ptr %4, align 8
  %5 = load ptr, ptr %3, align 8
  %6 = getelementptr inbounds nuw %"class.pxrInternal_v0_24__pxrReserved__::GfVec2f", ptr %5, i32 0, i32 0
  %7 = getelementptr inbounds [2 x float], ptr %6, i64 0, i64 0
  %8 = load float, ptr %7, align 4
  %9 = fpext float %8 to double
  %10 = load ptr, ptr %4, align 8
  %11 = call noundef nonnull align 8 dereferenceable(8) ptr @_ZNK32pxrInternal_v0_24__pxrReserved__7GfVec2dixEm(ptr noundef nonnull align 8 dereferenceable(16) %10, i64 noundef 0)
  %12 = load double, ptr %11, align 8
  %13 = fcmp oeq double %9, %12
  br i1 %13, label %14, label %23

14:                                               ; preds = %2
  %15 = getelementptr inbounds nuw %"class.pxrInternal_v0_24__pxrReserved__::GfVec2f", ptr %5, i32 0, i32 0
  %16 = getelementptr inbounds [2 x float], ptr %15, i64 0, i64 1
  %17 = load float, ptr %16, align 4
  %18 = fpext float %17 to double
  %19 = load ptr, ptr %4, align 8
  %20 = call noundef nonnull align 8 dereferenceable(8) ptr @_ZNK32pxrInternal_v0_24__pxrReserved__7GfVec2dixEm(ptr noundef nonnull align 8 dereferenceable(16) %19, i64 noundef 1)
  %21 = load double, ptr %20, align 8
  %22 = fcmp oeq double %18, %21
  br label %23

23:                                               ; preds = %14, %2
  %24 = phi i1 [ false, %2 ], [ %22, %14 ]
  ret i1 %24
}