; Function Attrs: mustprogress nofree norecurse nosync nounwind willreturn memory(argmem: read) uwtable
define noundef zeroext i1 @_ZNK32pxrInternal_v0_24__pxrReserved__7GfVec2feqERKNS_7GfVec2dE(ptr nocapture noundef nonnull readonly align 4 dereferenceable(8) %0, ptr nocapture noundef nonnull readonly align 8 dereferenceable(16) %1) local_unnamed_addr #2 align 2 {
  %3 = load float, ptr %0, align 4
  %4 = fpext float %3 to double
  %5 = load double, ptr %1, align 8
  %6 = fcmp oeq double %5, %4
  %7 = getelementptr inbounds i8, ptr %0, i64 4
  %8 = load float, ptr %7, align 4
  %9 = fpext float %8 to double
  %10 = getelementptr inbounds i8, ptr %1, i64 8
  %11 = load double, ptr %10, align 8
  %12 = fcmp oeq double %11, %9
  %13 = select i1 %6, i1 %12, i1 false
  ret i1 %13
}